target datalayout = "e-m:e-p270:32:32-p271:32:32-p272:64:64-i64:64-i128:128-f80:128-n8:16:32:64-S128"
target triple = "x86_64-pc-linux-gnu"

; Function Attrs: inlinehint nounwind uwtable
define internal i64 @align_to(i64 noundef %0, i64 noundef %1) #7 {
  %3 = alloca i64, align 8
  %4 = alloca i64, align 8
  %5 = alloca i64, align 8
  store i64 %0, ptr %3, align 8, !tbaa !18
  store i64 %1, ptr %4, align 8, !tbaa !18
  call void @llvm.lifetime.start.p0(i64 8, ptr %5) #16
  %6 = load i64, ptr %3, align 8, !tbaa !18
  %7 = load i64, ptr %4, align 8, !tbaa !18
  %8 = sub i64 %7, 1
  %9 = and i64 %6, %8
  store i64 %9, ptr %5, align 8, !tbaa !18
  %10 = load i64, ptr %3, align 8, !tbaa !18
  %11 = load i64, ptr %5, align 8, !tbaa !18
  %12 = icmp ne i64 %11, 0
  br i1 %12, label %13, label %17

13:                                               ; preds = %2
  %14 = load i64, ptr %4, align 8, !tbaa !18
  %15 = load i64, ptr %5, align 8, !tbaa !18
  %16 = sub i64 %14, %15
  br label %18

17:                                               ; preds = %2
  br label %18

18:                                               ; preds = %17, %13
  %19 = phi i64 [ %16, %13 ], [ 0, %17 ]
  %20 = add i64 %10, %19
  call void @llvm.lifetime.end.p0(i64 8, ptr %5) #16
  ret i64 %20
}

; Function Attrs: nounwind uwtable
define internal i64 @parse_serialize_spec(ptr noundef %0, ptr noundef %1, ptr noundef %2, ptr noundef %3) #0 {
  %5 = alloca ptr, align 8
  %6 = alloca ptr, align 8
  %7 = alloca ptr, align 8
  %8 = alloca ptr, align 8
  %9 = alloca i64, align 8
  %10 = alloca i64, align 8
  %11 = alloca ptr, align 8
  store ptr %0, ptr %5, align 8, !tbaa !37
  store ptr %1, ptr %6, align 8, !tbaa !39
  store ptr %2, ptr %7, align 8, !tbaa !39
  store ptr %3, ptr %8, align 8, !tbaa !39
  call void @llvm.lifetime.start.p0(i64 8, ptr %9) #16
  call void @llvm.lifetime.start.p0(i64 8, ptr %10) #16
  call void @llvm.lifetime.start.p0(i64 8, ptr %11) #16
  %12 = load ptr, ptr %5, align 8, !tbaa !37
  %13 = load ptr, ptr %12, align 8, !tbaa !16
  store ptr %13, ptr %11, align 8, !tbaa !16
  %14 = load ptr, ptr %11, align 8, !tbaa !16
  %15 = load i8, ptr %14, align 1, !tbaa !15
  %16 = sext i8 %15 to i32
  %17 = icmp eq i32 %16, 115
  br i1 %17, label %23, label %18

18:                                               ; preds = %4
  %19 = load ptr, ptr %11, align 8, !tbaa !16
  %20 = load i8, ptr %19, align 1, !tbaa !15
  %21 = sext i8 %20 to i32
  %22 = icmp eq i32 %21, 83
  br i1 %22, label %23, label %25

23:                                               ; preds = %18, %4
  %24 = load ptr, ptr %7, align 8, !tbaa !39
  store i64 2, ptr %24, align 8, !tbaa !18
  store i64 2, ptr %10, align 8, !tbaa !18
  br label %77

25:                                               ; preds = %18
  %26 = load ptr, ptr %11, align 8, !tbaa !16
  %27 = load i8, ptr %26, align 1, !tbaa !15
  %28 = sext i8 %27 to i32
  %29 = icmp eq i32 %28, 108
  br i1 %29, label %35, label %30

30:                                               ; preds = %25
  %31 = load ptr, ptr %11, align 8, !tbaa !16
  %32 = load i8, ptr %31, align 1, !tbaa !15
  %33 = sext i8 %32 to i32
  %34 = icmp eq i32 %33, 76
  br i1 %34, label %35, label %37

35:                                               ; preds = %30, %25
  %36 = load ptr, ptr %7, align 8, !tbaa !39
  store i64 4, ptr %36, align 8, !tbaa !18
  store i64 4, ptr %10, align 8, !tbaa !18
  br label %76

37:                                               ; preds = %30
  %38 = load ptr, ptr %11, align 8, !tbaa !16
  %39 = load i8, ptr %38, align 1, !tbaa !15
  %40 = sext i8 %39 to i32
  %41 = icmp eq i32 %40, 113
  br i1 %41, label %47, label %42

42:                                               ; preds = %37
  %43 = load ptr, ptr %11, align 8, !tbaa !16
  %44 = load i8, ptr %43, align 1, !tbaa !15
  %45 = sext i8 %44 to i32
  %46 = icmp eq i32 %45, 81
  br i1 %46, label %47, label %49

47:                                               ; preds = %42, %37
  %48 = load ptr, ptr %7, align 8, !tbaa !39
  store i64 8, ptr %48, align 8, !tbaa !18
  store i64 8, ptr %10, align 8, !tbaa !18
  br label %75

49:                                               ; preds = %42
  %50 = load ptr, ptr %11, align 8, !tbaa !16
  %51 = load i8, ptr %50, align 1, !tbaa !15
  %52 = sext i8 %51 to i32
  %53 = icmp eq i32 %52, 105
  br i1 %53, label %59, label %54

54:                                               ; preds = %49
  %55 = load ptr, ptr %11, align 8, !tbaa !16
  %56 = load i8, ptr %55, align 1, !tbaa !15
  %57 = sext i8 %56 to i32
  %58 = icmp eq i32 %57, 73
  br i1 %58, label %59, label %61

59:                                               ; preds = %54, %49
  %60 = load ptr, ptr %7, align 8, !tbaa !39
  store i64 4, ptr %60, align 8, !tbaa !18
  store i64 4, ptr %10, align 8, !tbaa !18
  br label %74

61:                                               ; preds = %54
  %62 = load ptr, ptr %11, align 8, !tbaa !16
  %63 = load i8, ptr %62, align 1, !tbaa !15
  %64 = sext i8 %63 to i32
  %65 = icmp eq i32 %64, 98
  br i1 %65, label %71, label %66

66:                                               ; preds = %61
  %67 = load ptr, ptr %11, align 8, !tbaa !16
  %68 = load i8, ptr %67, align 1, !tbaa !15
  %69 = sext i8 %68 to i32
  %70 = icmp eq i32 %69, 66
  br label %71

71:                                               ; preds = %66, %61
  %72 = phi i1 [ true, %61 ], [ %70, %66 ]
  call void @llvm.assume(i1 %72)
  %73 = load ptr, ptr %7, align 8, !tbaa !39
  store i64 1, ptr %73, align 8, !tbaa !18
  store i64 1, ptr %10, align 8, !tbaa !18
  br label %74

74:                                               ; preds = %71, %59
  br label %75

75:                                               ; preds = %74, %47
  br label %76

76:                                               ; preds = %75, %35
  br label %77

77:                                               ; preds = %76, %23
  %78 = load ptr, ptr %6, align 8, !tbaa !39
  %79 = load i64, ptr %78, align 8, !tbaa !18
  %80 = load i64, ptr %10, align 8, !tbaa !18
  %81 = call i64 @align_to(i64 noundef %79, i64 noundef %80)
  %82 = load ptr, ptr %6, align 8, !tbaa !39
  store i64 %81, ptr %82, align 8, !tbaa !18
  %83 = load ptr, ptr %8, align 8, !tbaa !39
  %84 = load i64, ptr %83, align 8, !tbaa !18
  %85 = load i64, ptr %10, align 8, !tbaa !18
  %86 = icmp ult i64 %84, %85
  br i1 %86, label %87, label %89

87:                                               ; preds = %77
  %88 = load i64, ptr %10, align 8, !tbaa !18
  br label %92

89:                                               ; preds = %77
  %90 = load ptr, ptr %8, align 8, !tbaa !39
  %91 = load i64, ptr %90, align 8, !tbaa !18
  br label %92

92:                                               ; preds = %89, %87
  %93 = phi i64 [ %88, %87 ], [ %91, %89 ]
  %94 = load ptr, ptr %8, align 8, !tbaa !39
  store i64 %93, ptr %94, align 8, !tbaa !18
  %95 = load ptr, ptr %11, align 8, !tbaa !16
  %96 = getelementptr inbounds nuw i8, ptr %95, i32 1
  store ptr %96, ptr %11, align 8, !tbaa !16
  %97 = call ptr @__ctype_b_loc() #18
  %98 = load ptr, ptr %97, align 8, !tbaa !33
  %99 = load ptr, ptr %11, align 8, !tbaa !16
  %100 = load i8, ptr %99, align 1, !tbaa !15
  %101 = zext i8 %100 to i32
  %102 = sext i32 %101 to i64
  %103 = getelementptr inbounds i16, ptr %98, i64 %102
  %104 = load i16, ptr %103, align 2, !tbaa !35
  %105 = zext i16 %104 to i32
  %106 = and i32 %105, 2048
  %107 = icmp ne i32 %106, 0
  br i1 %107, label %108, label %132

108:                                              ; preds = %92
  store i64 0, ptr %9, align 8, !tbaa !18
  br label %109

109:                                              ; preds = %121, %108
  %110 = call ptr @__ctype_b_loc() #18
  %111 = load ptr, ptr %110, align 8, !tbaa !33
  %112 = load ptr, ptr %11, align 8, !tbaa !16
  %113 = load i8, ptr %112, align 1, !tbaa !15
  %114 = zext i8 %113 to i32
  %115 = sext i32 %114 to i64
  %116 = getelementptr inbounds i16, ptr %111, i64 %115
  %117 = load i16, ptr %116, align 2, !tbaa !35
  %118 = zext i16 %117 to i32
  %119 = and i32 %118, 2048
  %120 = icmp ne i32 %119, 0
  br i1 %120, label %121, label %131

121:                                              ; preds = %109
  %122 = load i64, ptr %9, align 8, !tbaa !18
  %123 = mul i64 10, %122
  %124 = load ptr, ptr %11, align 8, !tbaa !16
  %125 = load i8, ptr %124, align 1, !tbaa !15
  %126 = sext i8 %125 to i64
  %127 = add i64 %123, %126
  %128 = sub i64 %127, 48
  store i64 %128, ptr %9, align 8, !tbaa !18
  %129 = load ptr, ptr %11, align 8, !tbaa !16
  %130 = getelementptr inbounds nuw i8, ptr %129, i32 1
  store ptr %130, ptr %11, align 8, !tbaa !16
  br label %109

131:                                              ; preds = %109
  br label %133

132:                                              ; preds = %92
  store i64 1, ptr %9, align 8, !tbaa !18
  br label %133

133:                                              ; preds = %132, %131
  %134 = load ptr, ptr %11, align 8, !tbaa !16
  %135 = load ptr, ptr %5, align 8, !tbaa !37
  store ptr %134, ptr %135, align 8, !tbaa !16
  %136 = load i64, ptr %9, align 8, !tbaa !18
  call void @llvm.lifetime.end.p0(i64 8, ptr %11) #16
  call void @llvm.lifetime.end.p0(i64 8, ptr %10) #16
  call void @llvm.lifetime.end.p0(i64 8, ptr %9) #16
  ret i64 %136
}