; Function Attrs: nofree nosync nounwind memory(read, argmem: readwrite, inaccessiblemem: none) uwtable
define internal fastcc i64 @parse_serialize_spec(ptr noundef nonnull captures(none) %0, ptr noundef nonnull captures(none) %1, ptr noundef nonnull writeonly captures(none) %2, ptr noundef nonnull captures(none) %3) unnamed_addr #6 {
  %5 = load ptr, ptr %0, align 8, !tbaa !17
  %6 = load i8, ptr %5, align 1, !tbaa !4
  switch i8 %6, label %9 [
    i8 115, label %10
    i8 83, label %10
    i8 108, label %7
    i8 76, label %7
    i8 113, label %8
    i8 81, label %8
    i8 105, label %7
    i8 73, label %7
    i8 98, label %switch.edge
    i8 66, label %switch.edge
  ]

7:                                                ; preds = %4, %4, %4, %4
  br label %10

8:                                                ; preds = %4, %4
  br label %10

9:                                                ; preds = %4
  unreachable

switch.edge:                                      ; preds = %4, %4
  br label %10

10:                                               ; preds = %4, %4, %7, %switch.edge, %8
  %.sink = phi i64 [ 4, %7 ], [ 1, %switch.edge ], [ 8, %8 ], [ 2, %4 ], [ 2, %4 ]
  store i64 %.sink, ptr %2, align 8, !tbaa !18
  %11 = load i64, ptr %1, align 8, !tbaa !18
  %12 = add nsw i64 %.sink, -1
  %13 = and i64 %12, %11
  %.not.i = icmp eq i64 %13, 0
  %14 = sub nsw i64 %.sink, %13
  %15 = select i1 %.not.i, i64 0, i64 %14
  %16 = add i64 %15, %11
  store i64 %16, ptr %1, align 8, !tbaa !18
  %17 = load i64, ptr %3, align 8, !tbaa !18
  %.032. = tail call i64 @llvm.umax.i64(i64 %17, i64 %.sink)
  store i64 %.032., ptr %3, align 8, !tbaa !18
  %18 = getelementptr inbounds nuw i8, ptr %5, i64 1
  %19 = tail call ptr @__ctype_b_loc() #18
  %20 = load ptr, ptr %19, align 8, !tbaa !27
  %21 = load i8, ptr %18, align 1, !tbaa !4
  %22 = zext i8 %21 to i64
  %23 = getelementptr inbounds nuw i16, ptr %20, i64 %22
  %24 = load i16, ptr %23, align 2, !tbaa !29
  %25 = and i16 %24, 2048
  %.not = icmp eq i16 %25, 0
  br i1 %.not, label %.loopexit, label %.lr.ph

.lr.ph:                                           ; preds = %10, %.lr.ph
  %26 = phi i8 [ %32, %.lr.ph ], [ %21, %10 ]
  %.040 = phi ptr [ %31, %.lr.ph ], [ %18, %10 ]
  %.03339 = phi i64 [ %30, %.lr.ph ], [ 0, %10 ]
  %27 = mul i64 %.03339, 10
  %28 = sext i8 %26 to i64
  %29 = add i64 %27, -48
  %30 = add i64 %29, %28
  %31 = getelementptr inbounds nuw i8, ptr %.040, i64 1
  %32 = load i8, ptr %31, align 1, !tbaa !4
  %33 = zext i8 %32 to i64
  %34 = getelementptr inbounds nuw i16, ptr %20, i64 %33
  %35 = load i16, ptr %34, align 2, !tbaa !29
  %36 = and i16 %35, 2048
  %.not37 = icmp eq i16 %36, 0
  br i1 %.not37, label %.loopexit, label %.lr.ph

.loopexit:                                        ; preds = %.lr.ph, %10
  %.134 = phi i64 [ 1, %10 ], [ %30, %.lr.ph ]
  %.1 = phi ptr [ %18, %10 ], [ %31, %.lr.ph ]
  store ptr %.1, ptr %0, align 8, !tbaa !17
  ret i64 %.134
}